ccopy_reg
_reconstructor
p0
(cneat.genome
FFGenome
p1
c__builtin__
object
p2
Ntp3
Rp4
(dp5
S'species_id'
p6
I1
sS'conn_genes'
p7
(dp8
(I9
I26
tp9
g0
(cneat.genes
ConnectionGene
p10
g2
Ntp11
Rp12
(dp13
S'weight'
p14
F0.8428199836517994
sS'enabled'
p15
I01
sS'out_node_id'
p16
I26
sS'in_node_id'
p17
I9
sbs(I15
I27
tp18
g0
(g10
g2
Ntp19
Rp20
(dp21
g14
F-1.954931686300082
sg15
I00
sg16
I27
sg17
I15
sbs(I5
I31
tp22
g0
(g10
g2
Ntp23
Rp24
(dp25
g14
F0.8484533076791921
sg15
I01
sg16
I31
sg17
I5
sbs(I3
I35
tp26
g0
(g10
g2
Ntp27
Rp28
(dp29
g14
F0.6453078637304241
sg15
I01
sg16
I35
sg17
I3
sbs(I0
I20
tp30
g0
(g10
g2
Ntp31
Rp32
(dp33
g14
F1.5468440773879584
sg15
I01
sg16
I20
sg17
I0
sbs(I15
I20
tp34
g0
(g10
g2
Ntp35
Rp36
(dp37
g14
F-10.723828408389286
sg15
I00
sg16
I20
sg17
I15
sbs(I4
I36
tp38
g0
(g10
g2
Ntp39
Rp40
(dp41
g14
F1.1635463922852471
sg15
I01
sg16
I36
sg17
I4
sbs(I17
I20
tp42
g0
(g10
g2
Ntp43
Rp44
(dp45
g14
F3.9452158550829557
sg15
I00
sg16
I20
sg17
I17
sbs(I12
I31
tp46
g0
(g10
g2
Ntp47
Rp48
(dp49
g14
F7.33791988623767
sg15
I01
sg16
I31
sg17
I12
sbs(I2
I22
tp50
g0
(g10
g2
Ntp51
Rp52
(dp53
g14
F1.4175638257773422
sg15
I01
sg16
I22
sg17
I2
sbs(I23
I26
tp54
g0
(g10
g2
Ntp55
Rp56
(dp57
g14
F1.1686188910199202
sg15
I01
sg16
I26
sg17
I23
sbs(I18
I30
tp58
g0
(g10
g2
Ntp59
Rp60
(dp61
g14
F-0.5640980465293153
sg15
I01
sg16
I30
sg17
I18
sbs(I33
I30
tp62
g0
(g10
g2
Ntp63
Rp64
(dp65
g14
F-4.276609686836215
sg15
I01
sg16
I30
sg17
I33
sbs(I13
I32
tp66
g0
(g10
g2
Ntp67
Rp68
(dp69
g14
F2.1324979898152314
sg15
I01
sg16
I32
sg17
I13
sbs(I29
I27
tp70
g0
(g10
g2
Ntp71
Rp72
(dp73
g14
F-2.617726092588125
sg15
I01
sg16
I27
sg17
I29
sbs(I3
I24
tp74
g0
(g10
g2
Ntp75
Rp76
(dp77
g14
F6.267413542127514
sg15
I01
sg16
I24
sg17
I3
sbs(I0
I32
tp78
g0
(g10
g2
Ntp79
Rp80
(dp81
g14
F-3.161502472877363
sg15
I01
sg16
I32
sg17
I0
sbs(I14
I31
tp82
g0
(g10
g2
Ntp83
Rp84
(dp85
g14
F0.119160201145841
sg15
I01
sg16
I31
sg17
I14
sbs(I9
I21
tp86
g0
(g10
g2
Ntp87
Rp88
(dp89
g14
F-6.771414563335362
sg15
I00
sg16
I21
sg17
I9
sbs(I24
I27
tp90
g0
(g10
g2
Ntp91
Rp92
(dp93
g14
F-2.460355204435214
sg15
I00
sg16
I27
sg17
I24
sbs(I25
I31
tp94
g0
(g10
g2
Ntp95
Rp96
(dp97
g14
F-2.5186312644524063
sg15
I01
sg16
I31
sg17
I25
sbs(I11
I22
tp98
g0
(g10
g2
Ntp99
Rp100
(dp101
g14
F-3.297220172332434
sg15
I01
sg16
I22
sg17
I11
sbs(I0
I34
tp102
g0
(g10
g2
Ntp103
Rp104
(dp105
g14
F-2.021672500122046
sg15
I01
sg16
I34
sg17
I0
sbs(I16
I22
tp106
g0
(g10
g2
Ntp107
Rp108
(dp109
g14
F-2.607692481228731
sg15
I00
sg16
I22
sg17
I16
sbs(I31
I22
tp110
g0
(g10
g2
Ntp111
Rp112
(dp113
g14
F1.4339697565449205
sg15
I00
sg16
I22
sg17
I31
sbs(I16
I32
tp114
g0
(g10
g2
Ntp115
Rp116
(dp117
g14
F0.4216109149610492
sg15
I00
sg16
I32
sg17
I16
sbs(I11
I27
tp118
g0
(g10
g2
Ntp119
Rp120
(dp121
g14
F0.4415058536493856
sg15
I00
sg16
I27
sg17
I11
sbs(I1
I28
tp122
g0
(g10
g2
Ntp123
Rp124
(dp125
g14
F-4.627807947424012
sg15
I00
sg16
I28
sg17
I1
sbs(I17
I23
tp126
g0
(g10
g2
Ntp127
Rp128
(dp129
g14
F-19.337655909272556
sg15
I00
sg16
I23
sg17
I17
sbs(I13
I20
tp130
g0
(g10
g2
Ntp131
Rp132
(dp133
g14
F1.722498669738287
sg15
I00
sg16
I20
sg17
I13
sbs(I2
I27
tp134
g0
(g10
g2
Ntp135
Rp136
(dp137
g14
F-1.1096607553679385
sg15
I00
sg16
I27
sg17
I2
sbs(I18
I20
tp138
g0
(g10
g2
Ntp139
Rp140
(dp141
g14
F-12.91523432736491
sg15
I00
sg16
I20
sg17
I18
sbs(I15
I34
tp142
g0
(g10
g2
Ntp143
Rp144
(dp145
g14
F-5.645665946657047
sg15
I01
sg16
I34
sg17
I15
sbs(I3
I23
tp146
g0
(g10
g2
Ntp147
Rp148
(dp149
g14
F3.4095686117758435
sg15
I01
sg16
I23
sg17
I3
sbs(I8
I21
tp150
g0
(g10
g2
Ntp151
Rp152
(dp153
g14
F-2.761115062283358
sg15
I01
sg16
I21
sg17
I8
sbs(I14
I24
tp154
g0
(g10
g2
Ntp155
Rp156
(dp157
g14
F10.257346942236637
sg15
I01
sg16
I24
sg17
I14
sbs(I5
I24
tp158
g0
(g10
g2
Ntp159
Rp160
(dp161
g14
F1.0033920883271445
sg15
I01
sg16
I24
sg17
I5
sbs(I2
I32
tp162
g0
(g10
g2
Ntp163
Rp164
(dp165
g14
F-1.0786547619175195
sg15
I01
sg16
I32
sg17
I2
sbs(I6
I23
tp166
g0
(g10
g2
Ntp167
Rp168
(dp169
g14
F-6.916968472014979
sg15
I00
sg16
I23
sg17
I6
sbs(I5
I21
tp170
g0
(g10
g2
Ntp171
Rp172
(dp173
g14
F7.198067730539607
sg15
I01
sg16
I21
sg17
I5
sbs(I11
I21
tp174
g0
(g10
g2
Ntp175
Rp176
(dp177
g14
F6.712300314385169
sg15
I01
sg16
I21
sg17
I11
sbs(I10
I23
tp178
g0
(g10
g2
Ntp179
Rp180
(dp181
g14
F-0.04000211008821175
sg15
I01
sg16
I23
sg17
I10
sbs(I0
I30
tp182
g0
(g10
g2
Ntp183
Rp184
(dp185
g14
F-1.3392545730418974
sg15
I01
sg16
I30
sg17
I0
sbs(I7
I22
tp186
g0
(g10
g2
Ntp187
Rp188
(dp189
g14
F7.455220310777201
sg15
I01
sg16
I22
sg17
I7
sbs(I6
I26
tp190
g0
(g10
g2
Ntp191
Rp192
(dp193
g14
F2.5296504723476114
sg15
I00
sg16
I26
sg17
I6
sbs(I5
I34
tp194
g0
(g10
g2
Ntp195
Rp196
(dp197
g14
F-0.401489231936667
sg15
I01
sg16
I34
sg17
I5
sbs(I12
I22
tp198
g0
(g10
g2
Ntp199
Rp200
(dp201
g14
F6.056865707910119
sg15
I01
sg16
I22
sg17
I12
sbs(I27
I22
tp202
g0
(g10
g2
Ntp203
Rp204
(dp205
g14
F-0.8886090645424132
sg15
I00
sg16
I22
sg17
I27
sbs(I1
I31
tp206
g0
(g10
g2
Ntp207
Rp208
(dp209
g14
F-1.4861493538983528
sg15
I01
sg16
I31
sg17
I1
sbs(I32
I22
tp210
g0
(g10
g2
Ntp211
Rp212
(dp213
g14
F3.8148045648549744
sg15
I01
sg16
I22
sg17
I32
sbs(I13
I23
tp214
g0
(g10
g2
Ntp215
Rp216
(dp217
g14
F0.36473663670705886
sg15
I00
sg16
I23
sg17
I13
sbs(I2
I28
tp218
g0
(g10
g2
Ntp219
Rp220
(dp221
g14
F-0.45964117623396405
sg15
I01
sg16
I28
sg17
I2
sbs(I14
I36
tp222
g0
(g10
g2
Ntp223
Rp224
(dp225
g14
F-0.3805117070345295
sg15
I01
sg16
I36
sg17
I14
sbs(I8
I31
tp226
g0
(g10
g2
Ntp227
Rp228
(dp229
g14
F-1.888194055246211
sg15
I00
sg16
I31
sg17
I8
sbs(I4
I26
tp230
g0
(g10
g2
Ntp231
Rp232
(dp233
g14
F-0.6487648444661174
sg15
I00
sg16
I26
sg17
I4
sbs(I19
I34
tp234
g0
(g10
g2
Ntp235
Rp236
(dp237
g14
F2.3875186188945614
sg15
I00
sg16
I34
sg17
I19
sbs(I14
I21
tp238
g0
(g10
g2
Ntp239
Rp240
(dp241
g14
F-0.019913877237301716
sg15
I01
sg16
I21
sg17
I14
sbs(I5
I27
tp242
g0
(g10
g2
Ntp243
Rp244
(dp245
g14
F-1.1768276395421071
sg15
I01
sg16
I27
sg17
I5
sbs(I4
I21
tp246
g0
(g10
g2
Ntp247
Rp248
(dp249
g14
F8.461552464890868
sg15
I01
sg16
I21
sg17
I4
sbs(I19
I23
tp250
g0
(g10
g2
Ntp251
Rp252
(dp253
g14
F-2.7721213206393953
sg15
I00
sg16
I23
sg17
I19
sbs(I24
I21
tp254
g0
(g10
g2
Ntp255
Rp256
(dp257
g14
F-2.849249024192938
sg15
I00
sg16
I21
sg17
I24
sbs(I4
I32
tp258
g0
(g10
g2
Ntp259
Rp260
(dp261
g14
F-4.920576697734162
sg15
I00
sg16
I32
sg17
I4
sbs(I1
I21
tp262
g0
(g10
g2
Ntp263
Rp264
(dp265
g14
F-2.48290115253256
sg15
I01
sg16
I21
sg17
I1
sbs(I0
I27
tp266
g0
(g10
g2
Ntp267
Rp268
(dp269
g14
F-1.3967140537581226
sg15
I00
sg16
I27
sg17
I0
sbs(I7
I21
tp270
g0
(g10
g2
Ntp271
Rp272
(dp273
g14
F-3.7760813434505653
sg15
I01
sg16
I21
sg17
I7
sbs(I12
I27
tp274
g0
(g10
g2
Ntp275
Rp276
(dp277
g14
F-1.6688211038090988
sg15
I01
sg16
I27
sg17
I12
sbs(I27
I21
tp278
g0
(g10
g2
Ntp279
Rp280
(dp281
g14
F5.015060166417765
sg15
I01
sg16
I21
sg17
I27
sbs(I1
I26
tp282
g0
(g10
g2
Ntp283
Rp284
(dp285
g14
F8.06975921311609
sg15
I01
sg16
I26
sg17
I1
sbs(I23
I22
tp286
g0
(g10
g2
Ntp287
Rp288
(dp289
g14
F-5.018638017216455
sg15
I01
sg16
I22
sg17
I23
sbs(I13
I26
tp290
g0
(g10
g2
Ntp291
Rp292
(dp293
g14
F-0.5240282989034939
sg15
I00
sg16
I26
sg17
I13
sbs(I9
I32
tp294
g0
(g10
g2
Ntp295
Rp296
(dp297
g14
F2.552662755401226
sg15
I00
sg16
I32
sg17
I9
sbs(I18
I26
tp298
g0
(g10
g2
Ntp299
Rp300
(dp301
g14
F2.320973008640875
sg15
I00
sg16
I26
sg17
I18
sbs(I3
I28
tp302
g0
(g10
g2
Ntp303
Rp304
(dp305
g14
F3.866985041459319
sg15
I00
sg16
I28
sg17
I3
sbs(I32
I21
tp306
g0
(g10
g2
Ntp307
Rp308
(dp309
g14
F-2.2504391387299867
sg15
I00
sg16
I21
sg17
I32
sbs(I1
I33
tp310
g0
(g10
g2
Ntp311
Rp312
(dp313
g14
F-0.44584373316316006
sg15
I00
sg16
I33
sg17
I1
sbs(I15
I26
tp314
g0
(g10
g2
Ntp315
Rp316
(dp317
g14
F4.342319707682037
sg15
I00
sg16
I26
sg17
I15
sbs(I14
I22
tp318
g0
(g10
g2
Ntp319
Rp320
(dp321
g14
F3.1851377823212745
sg15
I00
sg16
I22
sg17
I14
sbs(I30
I27
tp322
g0
(g10
g2
Ntp323
Rp324
(dp325
g14
F3.3173807847700543
sg15
I01
sg16
I27
sg17
I30
sbs(I0
I21
tp326
g0
(g10
g2
Ntp327
Rp328
(dp329
g14
F-6.05275620187041
sg15
I00
sg16
I21
sg17
I0
sbs(I15
I23
tp330
g0
(g10
g2
Ntp331
Rp332
(dp333
g14
F-1.0589688206328054
sg15
I00
sg16
I23
sg17
I15
sbs(I11
I31
tp334
g0
(g10
g2
Ntp335
Rp336
(dp337
g14
F-0.31066524290378117
sg15
I01
sg16
I31
sg17
I11
sbs(I0
I24
tp338
g0
(g10
g2
Ntp339
Rp340
(dp341
g14
F0.914581264939701
sg15
I01
sg16
I24
sg17
I0
sbs(I7
I24
tp342
g0
(g10
g2
Ntp343
Rp344
(dp345
g14
F0.7150846944406416
sg15
I00
sg16
I24
sg17
I7
sbs(I6
I32
tp346
g0
(g10
g2
Ntp347
Rp348
(dp349
g14
F-2.1919718269108155
sg15
I00
sg16
I32
sg17
I6
sbs(I12
I24
tp350
g0
(g10
g2
Ntp351
Rp352
(dp353
g14
F-3.769027000356151
sg15
I00
sg16
I24
sg17
I12
sbs(I2
I23
tp354
g0
(g10
g2
Ntp355
Rp356
(dp357
g14
F-1.2882529393700302
sg15
I00
sg16
I23
sg17
I2
sbs(I2
I31
tp358
g0
(g10
g2
Ntp359
Rp360
(dp361
g14
F5.796190379439999
sg15
I01
sg16
I31
sg17
I2
sbs(I17
I24
tp362
g0
(g10
g2
Ntp363
Rp364
(dp365
g14
F6.2363905816031195
sg15
I01
sg16
I24
sg17
I17
sbs(I23
I21
tp366
g0
(g10
g2
Ntp367
Rp368
(dp369
g14
F1.9214870079605695
sg15
I00
sg16
I21
sg17
I23
sbs(I18
I31
tp370
g0
(g10
g2
Ntp371
Rp372
(dp373
g14
F-1.0455557648345373
sg15
I00
sg16
I31
sg17
I18
sbs(I3
I27
tp374
g0
(g10
g2
Ntp375
Rp376
(dp377
g14
F4.996190400940475
sg15
I01
sg16
I27
sg17
I3
sbs(I30
I26
tp378
g0
(g10
g2
Ntp379
Rp380
(dp381
g14
F-3.4518843601373814
sg15
I00
sg16
I26
sg17
I30
sbs(I4
I28
tp382
g0
(g10
g2
Ntp383
Rp384
(dp385
g14
F0.03341731832235617
sg15
I01
sg16
I28
sg17
I4
sbs(I9
I20
tp386
g0
(g10
g2
Ntp387
Rp388
(dp389
g14
F-1.3822754070792933
sg15
I01
sg16
I20
sg17
I9
sbs(I3
I33
tp390
g0
(g10
g2
Ntp391
Rp392
(dp393
g14
F2.3330971950652266
sg15
I00
sg16
I33
sg17
I3
sbs(I23
I34
tp394
g0
(g10
g2
Ntp395
Rp396
(dp397
g14
F1.5226367635555063
sg15
I01
sg16
I34
sg17
I23
sbs(I11
I26
tp398
g0
(g10
g2
Ntp399
Rp400
(dp401
g14
F-1.0284471719615471
sg15
I01
sg16
I26
sg17
I11
sbs(I8
I24
tp402
g0
(g10
g2
Ntp403
Rp404
(dp405
g14
F0.6327934599247703
sg15
I01
sg16
I24
sg17
I8
sbs(I17
I22
tp406
g0
(g10
g2
Ntp407
Rp408
(dp409
g14
F3.043749190108934
sg15
I00
sg16
I22
sg17
I17
sbs(I16
I26
tp410
g0
(g10
g2
Ntp411
Rp412
(dp413
g14
F-6.221929724249504
sg15
I00
sg16
I26
sg17
I16
sbs(I37
I22
tp414
g0
(g10
g2
Ntp415
Rp416
(dp417
g14
F-9.915897071513855
sg15
I00
sg16
I22
sg17
I37
sbs(I10
I32
tp418
g0
(g10
g2
Ntp419
Rp420
(dp421
g14
F-1.289728813434795
sg15
I00
sg16
I32
sg17
I10
sbs(I18
I21
tp422
g0
(g10
g2
Ntp423
Rp424
(dp425
g14
F-0.3941893362123057
sg15
I00
sg16
I21
sg17
I18
sbs(I17
I27
tp426
g0
(g10
g2
Ntp427
Rp428
(dp429
g14
F-0.3367040994162068
sg15
I00
sg16
I27
sg17
I17
sbs(I23
I24
tp430
g0
(g10
g2
Ntp431
Rp432
(dp433
g14
F4.104510407148582
sg15
I00
sg16
I24
sg17
I23
sbs(I18
I32
tp434
g0
(g10
g2
Ntp435
Rp436
(dp437
g14
F2.2891320665105543
sg15
I00
sg16
I32
sg17
I18
sbs(I3
I22
tp438
g0
(g10
g2
Ntp439
Rp440
(dp441
g14
F-3.9280991036932043
sg15
I01
sg16
I22
sg17
I3
sbs(I8
I22
tp442
g0
(g10
g2
Ntp443
Rp444
(dp445
g14
F-0.4309585612731869
sg15
I01
sg16
I22
sg17
I8
sbs(I9
I23
tp446
g0
(g10
g2
Ntp447
Rp448
(dp449
g14
F2.5477029293349456
sg15
I01
sg16
I23
sg17
I9
sbs(I6
I20
tp450
g0
(g10
g2
Ntp451
Rp452
(dp453
g14
F-1.0838533281353713
sg15
I01
sg16
I20
sg17
I6
sbs(I31
I21
tp454
g0
(g10
g2
Ntp455
Rp456
(dp457
g14
F2.875523527393384
sg15
I01
sg16
I21
sg17
I31
sbs(I11
I20
tp458
g0
(g10
g2
Ntp459
Rp460
(dp461
g14
F-4.452561519327073
sg15
I01
sg16
I20
sg17
I11
sbs(I10
I20
tp462
g0
(g10
g2
Ntp463
Rp464
(dp465
g14
F4.264874551959467
sg15
I01
sg16
I20
sg17
I10
sbs(I0
I31
tp466
g0
(g10
g2
Ntp467
Rp468
(dp469
g14
F-6.65887325209708
sg15
I00
sg16
I31
sg17
I0
sbs(I16
I20
tp470
g0
(g10
g2
Ntp471
Rp472
(dp473
g14
F4.177551614970474
sg15
I01
sg16
I20
sg17
I16
sbs(I6
I27
tp474
g0
(g10
g2
Ntp475
Rp476
(dp477
g14
F-1.7746642575770697
sg15
I01
sg16
I27
sg17
I6
sbs(I5
I33
tp478
g0
(g10
g2
Ntp479
Rp480
(dp481
g14
F-1.9820995966368216
sg15
I01
sg16
I33
sg17
I5
sbs(I12
I23
tp482
g0
(g10
g2
Ntp483
Rp484
(dp485
g14
F1.6447931102300832
sg15
I01
sg16
I23
sg17
I12
sbs(I36
I20
tp486
g0
(g10
g2
Ntp487
Rp488
(dp489
g14
F-0.9254574778285861
sg15
I01
sg16
I20
sg17
I36
sbs(I1
I30
tp490
g0
(g10
g2
Ntp491
Rp492
(dp493
g14
F-4.324883349215794
sg15
I01
sg16
I30
sg17
I1
sbs(I7
I31
tp494
g0
(g10
g2
Ntp495
Rp496
(dp497
g14
F7.003024729641141
sg15
I00
sg16
I31
sg17
I7
sbs(I13
I22
tp498
g0
(g10
g2
Ntp499
Rp500
(dp501
g14
F-1.5217762697329107
sg15
I01
sg16
I22
sg17
I13
sbs(I18
I22
tp502
g0
(g10
g2
Ntp503
Rp504
(dp505
g14
F2.815276455224887
sg15
I01
sg16
I22
sg17
I18
sbs(I33
I22
tp506
g0
(g10
g2
Ntp507
Rp508
(dp509
g14
F1.4426676888732537
sg15
I00
sg16
I22
sg17
I33
sbs(I12
I32
tp510
g0
(g10
g2
Ntp511
Rp512
(dp513
g14
F-3.8812514707464816
sg15
I00
sg16
I32
sg17
I12
sbs(I34
I21
tp514
g0
(g10
g2
Ntp515
Rp516
(dp517
g14
F0.4347984547692292
sg15
I01
sg16
I21
sg17
I34
sbs(I15
I32
tp518
g0
(g10
g2
Ntp519
Rp520
(dp521
g14
F3.8068507715444273
sg15
I01
sg16
I32
sg17
I15
sbs(I13
I37
tp522
g0
(g10
g2
Ntp523
Rp524
(dp525
g14
F3.6133978273948375
sg15
I01
sg16
I37
sg17
I13
sbs(I4
I27
tp526
g0
(g10
g2
Ntp527
Rp528
(dp529
g14
F8.243693692644824
sg15
I01
sg16
I27
sg17
I4
sbs(I3
I21
tp530
g0
(g10
g2
Ntp531
Rp532
(dp533
g14
F-1.6734391938918058
sg15
I00
sg16
I21
sg17
I3
sbs(I25
I32
tp534
g0
(g10
g2
Ntp535
Rp536
(dp537
g14
F5.563556985020875
sg15
I00
sg16
I32
sg17
I25
sbs(I14
I26
tp538
g0
(g10
g2
Ntp539
Rp540
(dp541
g14
F3.835709932286334
sg15
I01
sg16
I26
sg17
I14
sbs(I5
I26
tp542
g0
(g10
g2
Ntp543
Rp544
(dp545
g14
F-1.6951580719050536
sg15
I01
sg16
I26
sg17
I5
sbs(I28
I35
tp546
g0
(g10
g2
Ntp547
Rp548
(dp549
g14
F-2.3133949223900427
sg15
I01
sg16
I35
sg17
I28
sbs(I19
I22
tp550
g0
(g10
g2
Ntp551
Rp552
(dp553
g14
F4.117740966617639
sg15
I00
sg16
I22
sg17
I19
sbs(I2
I34
tp554
g0
(g10
g2
Ntp555
Rp556
(dp557
g14
F-1.464082212835601
sg15
I01
sg16
I34
sg17
I2
sbs(I24
I22
tp558
g0
(g10
g2
Ntp559
Rp560
(dp561
g14
F-1.8880281421164375
sg15
I00
sg16
I22
sg17
I24
sbs(I5
I23
tp562
g0
(g10
g2
Ntp563
Rp564
(dp565
g14
F3.383268594718428
sg15
I01
sg16
I23
sg17
I5
sbs(I1
I20
tp566
g0
(g10
g2
Ntp567
Rp568
(dp569
g14
F-7.99181861843223
sg15
I00
sg16
I20
sg17
I1
sbs(I8
I36
tp570
g0
(g10
g2
Ntp571
Rp572
(dp573
g14
F0.2027928143987936
sg15
I00
sg16
I36
sg17
I8
sbs(I7
I20
tp574
g0
(g10
g2
Ntp575
Rp576
(dp577
g14
F-3.3010324534923887
sg15
I00
sg16
I20
sg17
I7
sbs(I37
I31
tp578
g0
(g10
g2
Ntp579
Rp580
(dp581
g14
F-0.771555968561222
sg15
I01
sg16
I31
sg17
I37
sbs(I26
I20
tp582
g0
(g10
g2
Ntp583
Rp584
(dp585
g14
F-2.707436503195971
sg15
I01
sg16
I20
sg17
I26
sbs(I32
I20
tp586
g0
(g10
g2
Ntp587
Rp588
(dp589
g14
F-0.3549354934976959
sg15
I00
sg16
I20
sg17
I32
sbs(I18
I27
tp590
g0
(g10
g2
Ntp591
Rp592
(dp593
g14
F-0.4989047247144127
sg15
I00
sg16
I27
sg17
I18
sbs(I6
I25
tp594
g0
(g10
g2
Ntp595
Rp596
(dp597
g14
F1.4383661178471443
sg15
I00
sg16
I25
sg17
I6
sbs(I35
I27
tp598
g0
(g10
g2
Ntp599
Rp600
(dp601
g14
F-4.426104575834569
sg15
I01
sg16
I27
sg17
I35
sbs(I3
I31
tp602
g0
(g10
g2
Ntp603
Rp604
(dp605
g14
F6.861098566341622
sg15
I00
sg16
I31
sg17
I3
sbs(I8
I32
tp606
g0
(g10
g2
Ntp607
Rp608
(dp609
g14
F3.3446559965546654
sg15
I00
sg16
I32
sg17
I8
sbs(I4
I24
tp610
g0
(g10
g2
Ntp611
Rp612
(dp613
g14
F-7.301842857844306
sg15
I01
sg16
I24
sg17
I4
sbs(I19
I32
tp614
g0
(g10
g2
Ntp615
Rp616
(dp617
g14
F0.20842318425059206
sg15
I00
sg16
I32
sg17
I19
sbs(I1
I32
tp618
g0
(g10
g2
Ntp619
Rp620
(dp621
g14
F0.09546598635983461
sg15
I01
sg16
I32
sg17
I1
sbs(I25
I35
tp622
g0
(g10
g2
Ntp623
Rp624
(dp625
g14
F1.7019501828992127
sg15
I01
sg16
I35
sg17
I25
sbs(I14
I23
tp626
g0
(g10
g2
Ntp627
Rp628
(dp629
g14
F0.8396153956114367
sg15
I00
sg16
I23
sg17
I14
sbs(I19
I21
tp630
g0
(g10
g2
Ntp631
Rp632
(dp633
g14
F-1.4556482670555357
sg15
I01
sg16
I21
sg17
I19
sbs(I10
I31
tp634
g0
(g10
g2
Ntp635
Rp636
(dp637
g14
F3.255747117799094
sg15
I01
sg16
I31
sg17
I10
sbs(I0
I22
tp638
g0
(g10
g2
Ntp639
Rp640
(dp641
g14
F1.003989881984098
sg15
I01
sg16
I22
sg17
I0
sbs(I15
I22
tp642
g0
(g10
g2
Ntp643
Rp644
(dp645
g14
F1.0929184188205732
sg15
I00
sg16
I22
sg17
I15
sbs(I1
I23
tp646
g0
(g10
g2
Ntp647
Rp648
(dp649
g14
F-0.13814055228616973
sg15
I01
sg16
I23
sg17
I1
sbs(I7
I27
tp650
g0
(g10
g2
Ntp651
Rp652
(dp653
g14
F3.880592016814122
sg15
I01
sg16
I27
sg17
I7
sbs(I2
I20
tp654
g0
(g10
g2
Ntp655
Rp656
(dp657
g14
F-0.2062615915179962
sg15
I00
sg16
I20
sg17
I2
sbs(I17
I31
tp658
g0
(g10
g2
Ntp659
Rp660
(dp661
g14
F2.9135622693252037
sg15
I00
sg16
I31
sg17
I17
sbs(I23
I20
tp662
g0
(g10
g2
Ntp663
Rp664
(dp665
g14
F-8.179680451484275
sg15
I01
sg16
I20
sg17
I23
sbs(I28
I20
tp666
g0
(g10
g2
Ntp667
Rp668
(dp669
g14
F-0.1347082907425743
sg15
I00
sg16
I20
sg17
I28
sbs(I14
I35
tp670
g0
(g10
g2
Ntp671
Rp672
(dp673
g14
F-0.6807473011700143
sg15
I00
sg16
I35
sg17
I14
sbs(I37
I33
tp674
g0
(g10
g2
Ntp675
Rp676
(dp677
g14
F-3.7414553096797443
sg15
I00
sg16
I33
sg17
I37
sbs(I3
I26
tp678
g0
(g10
g2
Ntp679
Rp680
(dp681
g14
F0.19086239515625303
sg15
I00
sg16
I26
sg17
I3
sbs(I8
I26
tp682
g0
(g10
g2
Ntp683
Rp684
(dp685
g14
F0.9241546325835743
sg15
I01
sg16
I26
sg17
I8
sbs(I19
I31
tp686
g0
(g10
g2
Ntp687
Rp688
(dp689
g14
F2.0971600902646506
sg15
I00
sg16
I31
sg17
I19
sbs(I9
I27
tp690
g0
(g10
g2
Ntp691
Rp692
(dp693
g14
F4.334296684908567
sg15
I00
sg16
I27
sg17
I9
sbs(I15
I24
tp694
g0
(g10
g2
Ntp695
Rp696
(dp697
g14
F-8.601705201460337
sg15
I00
sg16
I24
sg17
I15
sbs(I3
I32
tp698
g0
(g10
g2
Ntp699
Rp700
(dp701
g14
F-3.0576851211619998
sg15
I00
sg16
I32
sg17
I3
sbs(I15
I21
tp702
g0
(g10
g2
Ntp703
Rp704
(dp705
g14
F0.2753396630531699
sg15
I01
sg16
I21
sg17
I15
sbs(I6
I31
tp706
g0
(g10
g2
Ntp707
Rp708
(dp709
g14
F-12.380785185490858
sg15
I00
sg16
I31
sg17
I6
sbs(I17
I21
tp710
g0
(g10
g2
Ntp711
Rp712
(dp713
g14
F-5.020533901187905
sg15
I01
sg16
I21
sg17
I17
sbs(I16
I27
tp714
g0
(g10
g2
Ntp715
Rp716
(dp717
g14
F11.963316642784237
sg15
I01
sg16
I27
sg17
I16
sbs(I6
I34
tp718
g0
(g10
g2
Ntp719
Rp720
(dp721
g14
F-1.5349419072603392
sg15
I00
sg16
I34
sg17
I6
sbs(I17
I26
tp722
g0
(g10
g2
Ntp723
Rp724
(dp725
g14
F-2.4088469675380555
sg15
I01
sg16
I26
sg17
I17
sbs(I23
I27
tp726
g0
(g10
g2
Ntp727
Rp728
(dp729
g14
F-3.629293751398287
sg15
I00
sg16
I27
sg17
I23
sbs(I13
I31
tp730
g0
(g10
g2
Ntp731
Rp732
(dp733
g14
F-1.8976941715629618
sg15
I00
sg16
I31
sg17
I13
sbs(I13
I33
tp734
g0
(g10
g2
Ntp735
Rp736
(dp737
g14
F1.8396738618943589
sg15
I01
sg16
I33
sg17
I13
sbs(I26
I22
tp738
g0
(g10
g2
Ntp739
Rp740
(dp741
g14
F-11.30187574019114
sg15
I01
sg16
I22
sg17
I26
sbs(I8
I23
tp742
g0
(g10
g2
Ntp743
Rp744
(dp745
g14
F-13.507848799501533
sg15
I01
sg16
I23
sg17
I8
sbs(I19
I26
tp746
g0
(g10
g2
Ntp747
Rp748
(dp749
g14
F0.9811071905514717
sg15
I01
sg16
I26
sg17
I19
sbs(I9
I22
tp750
g0
(g10
g2
Ntp751
Rp752
(dp753
g14
F6.1292298930972455
sg15
I01
sg16
I22
sg17
I9
sbs(I15
I31
tp754
g0
(g10
g2
Ntp755
Rp756
(dp757
g14
F-5.603930221143858
sg15
I01
sg16
I31
sg17
I15
sbs(I6
I21
tp758
g0
(g10
g2
Ntp759
Rp760
(dp761
g14
F-3.1878530576496615
sg15
I00
sg16
I21
sg17
I6
sbs(I11
I23
tp762
g0
(g10
g2
Ntp763
Rp764
(dp765
g14
F0.34774728566562224
sg15
I01
sg16
I23
sg17
I11
sbs(I10
I21
tp766
g0
(g10
g2
Ntp767
Rp768
(dp769
g14
F-1.1871416899672258
sg15
I00
sg16
I21
sg17
I10
sbs(I16
I21
tp770
g0
(g10
g2
Ntp771
Rp772
(dp773
g14
F-0.3018360484631978
sg15
I00
sg16
I21
sg17
I16
sbs(I6
I24
tp774
g0
(g10
g2
Ntp775
Rp776
(dp777
g14
F-0.8576034690007195
sg15
I01
sg16
I24
sg17
I6
sbs(I5
I32
tp778
g0
(g10
g2
Ntp779
Rp780
(dp781
g14
F11.805983730073672
sg15
I01
sg16
I32
sg17
I5
sbs(I11
I24
tp782
g0
(g10
g2
Ntp783
Rp784
(dp785
g14
F-1.0998678960414452
sg15
I01
sg16
I24
sg17
I11
sbs(I16
I24
tp786
g0
(g10
g2
Ntp787
Rp788
(dp789
g14
F-1.5702516717120636
sg15
I00
sg16
I24
sg17
I16
sbs(I13
I21
tp790
g0
(g10
g2
Ntp791
Rp792
(dp793
g14
F-0.5029591219205407
sg15
I01
sg16
I21
sg17
I13
sbs(I2
I26
tp794
g0
(g10
g2
Ntp795
Rp796
(dp797
g14
F-2.9627967662505443
sg15
I01
sg16
I26
sg17
I2
sbs(I16
I23
tp798
g0
(g10
g2
Ntp799
Rp800
(dp801
g14
F3.6477431856821707
sg15
I01
sg16
I23
sg17
I16
sbs(I28
I21
tp802
g0
(g10
g2
Ntp803
Rp804
(dp805
g14
F-0.6066366107351677
sg15
I01
sg16
I21
sg17
I28
sbs(I23
I30
tp806
g0
(g10
g2
Ntp807
Rp808
(dp809
g14
F-1.1989591949128064
sg15
I01
sg16
I30
sg17
I23
sbs(I18
I34
tp810
g0
(g10
g2
Ntp811
Rp812
(dp813
g14
F1.6862905071768557
sg15
I00
sg16
I34
sg17
I18
sbs(I12
I20
tp814
g0
(g10
g2
Ntp815
Rp816
(dp817
g14
F-3.0100080005375336
sg15
I00
sg16
I20
sg17
I12
sbs(I9
I24
tp818
g0
(g10
g2
Ntp819
Rp820
(dp821
g14
F13.11304110298696
sg15
I00
sg16
I24
sg17
I9
sbs(I3
I20
tp822
g0
(g10
g2
Ntp823
Rp824
(dp825
g14
F-1.993896719280576
sg15
I00
sg16
I20
sg17
I3
sbs(I1
I36
tp826
g0
(g10
g2
Ntp827
Rp828
(dp829
g14
F-0.8391657184198732
sg15
I00
sg16
I36
sg17
I1
sbs(I8
I20
tp830
g0
(g10
g2
Ntp831
Rp832
(dp833
g14
F-0.8544354406495164
sg15
I00
sg16
I20
sg17
I8
sbs(I14
I27
tp834
g0
(g10
g2
Ntp835
Rp836
(dp837
g14
F12.201851574602324
sg15
I01
sg16
I27
sg17
I14
sbs(I4
I23
tp838
g0
(g10
g2
Ntp839
Rp840
(dp841
g14
F-4.01152402437931
sg15
I01
sg16
I23
sg17
I4
sbs(I10
I27
tp842
g0
(g10
g2
Ntp843
Rp844
(dp845
g14
F-1.1178835970460947
sg15
I01
sg16
I27
sg17
I10
sbs(I16
I30
tp846
g0
(g10
g2
Ntp847
Rp848
(dp849
g14
F2.600559911734731
sg15
I01
sg16
I30
sg17
I16
sbs(I5
I22
tp850
g0
(g10
g2
Ntp851
Rp852
(dp853
g14
F0.04418649969298394
sg15
I01
sg16
I22
sg17
I5
sbs(I10
I22
tp854
g0
(g10
g2
Ntp855
Rp856
(dp857
g14
F0.4574780764741735
sg15
I01
sg16
I22
sg17
I10
sbs(I8
I37
tp858
g0
(g10
g2
Ntp859
Rp860
(dp861
g14
F-0.3223384752263332
sg15
I00
sg16
I37
sg17
I8
sbs(I7
I23
tp862
g0
(g10
g2
Ntp863
Rp864
(dp865
g14
F0.780116772237349
sg15
I00
sg16
I23
sg17
I7
sbs(I12
I21
tp866
g0
(g10
g2
Ntp867
Rp868
(dp869
g14
F0.30180880894025147
sg15
I00
sg16
I21
sg17
I12
sbs(I18
I23
tp870
g0
(g10
g2
Ntp871
Rp872
(dp873
g14
F0.3334497143840406
sg15
I00
sg16
I23
sg17
I18
sbs(I1
I24
tp874
g0
(g10
g2
Ntp875
Rp876
(dp877
g14
F1.511212994614384
sg15
I01
sg16
I24
sg17
I1
sbs(I7
I32
tp878
g0
(g10
g2
Ntp879
Rp880
(dp881
g14
F-0.7992560556506819
sg15
I00
sg16
I32
sg17
I7
sbs(I13
I24
tp882
g0
(g10
g2
Ntp883
Rp884
(dp885
g14
F-0.19098303352513252
sg15
I00
sg16
I24
sg17
I13
sbs(I35
I32
tp886
g0
(g10
g2
Ntp887
Rp888
(dp889
g14
F-4.208425354260466
sg15
I00
sg16
I32
sg17
I35
sbs(I18
I24
tp890
g0
(g10
g2
Ntp891
Rp892
(dp893
g14
F2.501571862044635
sg15
I01
sg16
I24
sg17
I18
sbs(I17
I32
tp894
g0
(g10
g2
Ntp895
Rp896
(dp897
g14
F-0.8653433197203442
sg15
I00
sg16
I32
sg17
I17
sbs(I36
I27
tp898
g0
(g10
g2
Ntp899
Rp900
(dp901
g14
F0.787351414445823
sg15
I01
sg16
I27
sg17
I36
sbs(I31
I20
tp902
g0
(g10
g2
Ntp903
Rp904
(dp905
g14
F-3.4378394145495936
sg15
I00
sg16
I20
sg17
I31
sbs(I4
I25
tp906
g0
(g10
g2
Ntp907
Rp908
(dp909
g14
F5.955430344847248
sg15
I01
sg16
I25
sg17
I4
sbs(I9
I31
tp910
g0
(g10
g2
Ntp911
Rp912
(dp913
g14
F-2.153596914282064
sg15
I01
sg16
I31
sg17
I9
sbs(I2
I24
tp914
g0
(g10
g2
Ntp915
Rp916
(dp917
g14
F1.6256165084418317
sg15
I00
sg16
I24
sg17
I2
sbs(I4
I20
tp918
g0
(g10
g2
Ntp919
Rp920
(dp921
g14
F5.813596927989619
sg15
I01
sg16
I20
sg17
I4
sbs(I19
I20
tp922
g0
(g10
g2
Ntp923
Rp924
(dp925
g14
F2.1199183902572574
sg15
I00
sg16
I20
sg17
I19
sbs(I2
I36
tp926
g0
(g10
g2
Ntp927
Rp928
(dp929
g14
F3.4540748480629366
sg15
I00
sg16
I36
sg17
I2
sbs(I0
I23
tp930
g0
(g10
g2
Ntp931
Rp932
(dp933
g14
F1.3486519238473587
sg15
I00
sg16
I23
sg17
I0
sbs(I24
I20
tp934
g0
(g10
g2
Ntp935
Rp936
(dp937
g14
F5.563248576850411
sg15
I00
sg16
I20
sg17
I24
sbs(I28
I36
tp938
g0
(g10
g2
Ntp939
Rp940
(dp941
g14
F-1.5270858186612017
sg15
I01
sg16
I36
sg17
I28
sbs(I1
I22
tp942
g0
(g10
g2
Ntp943
Rp944
(dp945
g14
F4.279074537348654
sg15
I01
sg16
I22
sg17
I1
sbs(I0
I26
tp946
g0
(g10
g2
Ntp947
Rp948
(dp949
g14
F4.34224146971015
sg15
I00
sg16
I26
sg17
I0
sbs(I16
I31
tp950
g0
(g10
g2
Ntp951
Rp952
(dp953
g14
F-0.009778712979954668
sg15
I01
sg16
I31
sg17
I16
sbs(I10
I24
tp954
g0
(g10
g2
Ntp955
Rp956
(dp957
g14
F4.154950428252109
sg15
I00
sg16
I24
sg17
I10
sbs(I12
I26
tp958
g0
(g10
g2
Ntp959
Rp960
(dp961
g14
F6.5093681846472204
sg15
I00
sg16
I26
sg17
I12
sbs(I1
I27
tp962
g0
(g10
g2
Ntp963
Rp964
(dp965
g14
F-5.63346451244772
sg15
I01
sg16
I27
sg17
I1
sbs(I13
I27
tp966
g0
(g10
g2
Ntp967
Rp968
(dp969
g14
F-0.32011490735921805
sg15
I00
sg16
I27
sg17
I13
sbs(I11
I32
tp970
g0
(g10
g2
Ntp971
Rp972
(dp973
g14
F7.804067748905145
sg15
I00
sg16
I32
sg17
I11
sbs(I18
I29
tp974
g0
(g10
g2
Ntp975
Rp976
(dp977
g14
F1.0
sg15
I01
sg16
I29
sg17
I18
sbs(I14
I32
tp978
g0
(g10
g2
Ntp979
Rp980
(dp981
g14
F0.2133355610127814
sg15
I00
sg16
I32
sg17
I14
sbs(I8
I27
tp982
g0
(g10
g2
Ntp983
Rp984
(dp985
g14
F-5.773403364464833
sg15
I01
sg16
I27
sg17
I8
sbssS'parent1_id'
p986
I3567
sS'num_inputs'
p987
I20
sS'node_genes'
p988
(dp989
I0
g0
(cneat.genes
NodeGene
p990
g2
Ntp991
Rp992
(dp993
S'activation_type'
p994
S'sigmoid'
p995
sS'bias'
p996
F0.0
sS'type'
p997
S'INPUT'
p998
sS'ID'
p999
I0
sS'response'
p1000
F4.924273
sbsI1
g0
(g990
g2
Ntp1001
Rp1002
(dp1003
g994
g995
sg996
F0.0
sg997
g998
sg999
I1
sg1000
F4.924273
sbsI2
g0
(g990
g2
Ntp1004
Rp1005
(dp1006
g994
g995
sg996
F0.0
sg997
g998
sg999
I2
sg1000
F4.924273
sbsI3
g0
(g990
g2
Ntp1007
Rp1008
(dp1009
g994
g995
sg996
F0.0
sg997
g998
sg999
I3
sg1000
F4.924273
sbsI4
g0
(g990
g2
Ntp1010
Rp1011
(dp1012
g994
g995
sg996
F0.0
sg997
g998
sg999
I4
sg1000
F4.924273
sbsI5
g0
(g990
g2
Ntp1013
Rp1014
(dp1015
g994
g995
sg996
F0.0
sg997
g998
sg999
I5
sg1000
F4.924273
sbsI6
g0
(g990
g2
Ntp1016
Rp1017
(dp1018
g994
g995
sg996
F0.0
sg997
g998
sg999
I6
sg1000
F4.924273
sbsI7
g0
(g990
g2
Ntp1019
Rp1020
(dp1021
g994
g995
sg996
F0.0
sg997
g998
sg999
I7
sg1000
F4.924273
sbsI8
g0
(g990
g2
Ntp1022
Rp1023
(dp1024
g994
g995
sg996
F0.0
sg997
g998
sg999
I8
sg1000
F4.924273
sbsI9
g0
(g990
g2
Ntp1025
Rp1026
(dp1027
g994
g995
sg996
F0.0
sg997
g998
sg999
I9
sg1000
F4.924273
sbsI10
g0
(g990
g2
Ntp1028
Rp1029
(dp1030
g994
g995
sg996
F0.0
sg997
g998
sg999
I10
sg1000
F4.924273
sbsI11
g0
(g990
g2
Ntp1031
Rp1032
(dp1033
g994
g995
sg996
F0.0
sg997
g998
sg999
I11
sg1000
F4.924273
sbsI12
g0
(g990
g2
Ntp1034
Rp1035
(dp1036
g994
g995
sg996
F0.0
sg997
g998
sg999
I12
sg1000
F4.924273
sbsI13
g0
(g990
g2
Ntp1037
Rp1038
(dp1039
g994
g995
sg996
F0.0
sg997
g998
sg999
I13
sg1000
F4.924273
sbsI14
g0
(g990
g2
Ntp1040
Rp1041
(dp1042
g994
g995
sg996
F0.0
sg997
g998
sg999
I14
sg1000
F4.924273
sbsI15
g0
(g990
g2
Ntp1043
Rp1044
(dp1045
g994
g995
sg996
F0.0
sg997
g998
sg999
I15
sg1000
F4.924273
sbsI16
g0
(g990
g2
Ntp1046
Rp1047
(dp1048
g994
g995
sg996
F0.0
sg997
g998
sg999
I16
sg1000
F4.924273
sbsI17
g0
(g990
g2
Ntp1049
Rp1050
(dp1051
g994
g995
sg996
F0.0
sg997
g998
sg999
I17
sg1000
F4.924273
sbsI18
g0
(g990
g2
Ntp1052
Rp1053
(dp1054
g994
g995
sg996
F0.0
sg997
g998
sg999
I18
sg1000
F4.924273
sbsI19
g0
(g990
g2
Ntp1055
Rp1056
(dp1057
g994
g995
sg996
F0.0
sg997
g998
sg999
I19
sg1000
F4.924273
sbsI20
g0
(g990
g2
Ntp1058
Rp1059
(dp1060
g994
S'sigmoid'
p1061
sg996
F6.191243554498601
sg997
S'OUTPUT'
p1062
sg999
I20
sg1000
F4.6319422253372675
sbsI21
g0
(g990
g2
Ntp1063
Rp1064
(dp1065
g994
g1061
sg996
F-2.959086704029243
sg997
g1062
sg999
I21
sg1000
F3.902384495661052
sbsI22
g0
(g990
g2
Ntp1066
Rp1067
(dp1068
g994
g1061
sg996
F6.321807094845147
sg997
g1062
sg999
I22
sg1000
F5.211145357344931
sbsI23
g0
(g990
g2
Ntp1069
Rp1070
(dp1071
g994
g1061
sg996
F2.933967245667903
sg997
S'HIDDEN'
p1072
sg999
I23
sg1000
F5.059505598193223
sbsI24
g0
(g990
g2
Ntp1073
Rp1074
(dp1075
g994
g1061
sg996
F-5.0190006361024375
sg997
g1072
sg999
I24
sg1000
F5.4635097503284165
sbsI25
g0
(g990
g2
Ntp1076
Rp1077
(dp1078
g994
g1061
sg996
F9.757435673321591
sg997
g1072
sg999
I25
sg1000
F4.2357141823868645
sbsI26
g0
(g990
g2
Ntp1079
Rp1080
(dp1081
g994
g1061
sg996
F-3.0849478113331537
sg997
g1072
sg999
I26
sg1000
F4.82244005905119
sbsI27
g0
(g990
g2
Ntp1082
Rp1083
(dp1084
g994
g1061
sg996
F-6.692465404563199
sg997
g1072
sg999
I27
sg1000
F5.299842557589228
sbsI28
g0
(g990
g2
Ntp1085
Rp1086
(dp1087
g994
g1061
sg996
F9.347034727043381
sg997
g1072
sg999
I28
sg1000
F4.811205497924507
sbsI29
g0
(g990
g2
Ntp1088
Rp1089
(dp1090
g994
g1061
sg996
F0.0
sg997
g1072
sg999
I29
sg1000
F4.924273
sbsI30
g0
(g990
g2
Ntp1091
Rp1092
(dp1093
g994
g1061
sg996
F1.3735760541549071
sg997
g1072
sg999
I30
sg1000
F4.2800535783276255
sbsI31
g0
(g990
g2
Ntp1094
Rp1095
(dp1096
g994
g1061
sg996
F1.4332536120914108
sg997
g1072
sg999
I31
sg1000
F5.54397201027914
sbsI32
g0
(g990
g2
Ntp1097
Rp1098
(dp1099
g994
g1061
sg996
F7.174120864146104
sg997
g1072
sg999
I32
sg1000
F5.256993990750801
sbsI33
g0
(g990
g2
Ntp1100
Rp1101
(dp1102
g994
g1061
sg996
F-3.6061661888745795
sg997
g1072
sg999
I33
sg1000
F4.877659038229988
sbsI34
g0
(g990
g2
Ntp1103
Rp1104
(dp1105
g994
g1061
sg996
F-1.4979899581246527
sg997
g1072
sg999
I34
sg1000
F4.512961573140258
sbsI35
g0
(g990
g2
Ntp1106
Rp1107
(dp1108
g994
g1061
sg996
F-2.497664246916079
sg997
g1072
sg999
I35
sg1000
F4.9953118096612545
sbsI36
g0
(g990
g2
Ntp1109
Rp1110
(dp1111
g994
g1061
sg996
F9.039744893133099
sg997
g1072
sg999
I36
sg1000
F4.782936016141044
sbsI37
g0
(g990
g2
Ntp1112
Rp1113
(dp1114
g994
g1061
sg996
F13.663874800503844
sg997
g1072
sg999
I37
sg1000
F4.915019344837664
sbssS'node_order'
p1115
(lp1116
I23
aI28
aI37
aI33
aI24
aI29
aI25
aI34
aI30
aI26
aI36
aI35
aI27
aI31
aI32
asS'num_outputs'
p1117
I3
sS'fitness'
p1118
I1312
sS'parent2_id'
p1119
I3570
sS'config'
p1120
g0
(cneat.config
Config
p1121
g2
Ntp1122
Rp1123
(dp1124
S'weight_stdev'
p1125
F1.0
sS'disjoint_coefficient'
p1126
F1.0
sS'prob_delete_node'
p1127
F0.0352
sS'initial_connection'
p1128
S'fully_connected'
p1129
sS'stagnation_type'
p1130
cneat.stagnation
DefaultStagnation
p1131
sS'weight_mutation_power'
p1132
F0.825
sS'excess_coefficient'
p1133
F1.0
sS'compatibility_threshold'
p1134
F3.0
sS'pop_size'
p1135
I20
sS'weight_coefficient'
p1136
F0.4
sS'feedforward'
p1137
I01
sS'prob_add_node'
p1138
F0.085
sS'genotype'
p1139
g1
sS'type_config'
p1140
(dp1141
S'DefaultStagnation'
p1142
(lp1143
(S'species_fitness_func'
p1144
S'mean'
p1145
tp1146
a(S'max_stagnation'
p1147
S'15'
p1148
tp1149
asS'DefaultReproduction'
p1150
(lp1151
(S'elitism'
p1152
S'1'
p1153
tp1154
a(S'survival_threshold'
p1155
S'0.2'
p1156
tp1157
assS'prob_mutate_activation'
p1158
F0.0
sS'conn_gene_type'
p1159
g10
sS'connection_fraction'
p1160
NsS'activation_functions'
p1161
(lp1162
g1061
asS'response_mutation_power'
p1163
F0.1
sS'prob_add_conn'
p1164
F0.988
sS'checkpoint_time_interval'
p1165
NsS'checkpoint_gen_interval'
p1166
NsS'prob_mutate_bias'
p1167
F0.0509
sS'reproduction_type'
p1168
cneat.reproduction
DefaultReproduction
p1169
sS'node_gene_type'
p1170
g990
sS'output_nodes'
p1171
I3
sS'input_nodes'
p1172
I20
sS'prob_replace_weight'
p1173
F0.0245
sS'registry'
p1174
(dp1175
S'DefaultStagnation'
p1176
g1131
sS'DefaultReproduction'
p1177
g1169
ssS'hidden_nodes'
p1178
I10
sS'report'
p1179
I01
sS'prob_mutate_response'
p1180
F0.1
sS'collect_statistics'
p1181
I01
sS'max_weight'
p1182
F30.0
sS'min_weight'
p1183
F-30.0
sS'prob_toggle_link'
p1184
F0.0138
sS'save_best'
p1185
I00
sS'max_fitness_threshold'
p1186
F1000000.0
sS'bias_mutation_power'
p1187
F2.093
sS'prob_delete_conn'
p1188
F0.146
sS'reset_on_extinction'
p1189
I01
sS'prob_mutate_weight'
p1190
F0.46
sbsg999
I3582
sb.